; Function Attrs: mustprogress uwtable
define void @_ZN5arrow8internal13ValidateArrayERKNS_5ArrayE(ptr dead_on_unwind noalias writable sret(%"class.arrow::Status") align 8 %0, ptr noundef nonnull readonly align 8 captures(none) dereferenceable(32) %1) local_unnamed_addr #1 {
  %3 = alloca %"struct.arrow::internal::(anonymous namespace)::ValidateArrayImpl", align 8
  %4 = getelementptr inbounds nuw i8, ptr %1, i64 8
  %5 = load ptr, ptr %4, align 8, !tbaa !137
  call void @llvm.lifetime.start.p0(i64 16, ptr nonnull %3) #21, !noalias !207
  store ptr %5, ptr %3, align 8, !tbaa !32, !noalias !207
  %6 = getelementptr inbounds nuw i8, ptr %3, i64 8
  store i8 0, ptr %6, align 8, !tbaa !35, !noalias !207
  call fastcc void @_ZN5arrow8internal12_GLOBAL__N_117ValidateArrayImpl8ValidateEv(ptr dead_on_unwind noalias writable align 8 %0, ptr noundef nonnull align 8 dereferenceable(9) %3)
  call void @llvm.lifetime.end.p0(i64 16, ptr nonnull %3) #21, !noalias !207
  ret void
}